target datalayout = "e-m:e-p270:32:32-p271:32:32-p272:64:64-i64:64-i128:128-f80:128-n8:16:32:64-S128"
target triple = "x86_64-pc-linux-gnu"

@hf_netlogon_num_sid = internal global i32 0, align 4
@.str = private unnamed_addr constant [26 x i8] c"SID_AND_ATTRIBUTES_ARRAY:\00", align 1
@hf_netlogon_dummy_string = internal global i32 0, align 4
@hf_netlogon_dummy_string2 = internal global i32 0, align 4
@hf_netlogon_dummy_string3 = internal global i32 0, align 4
@hf_netlogon_dummy_string4 = internal global i32 0, align 4
@hf_netlogon_dummy_string5 = internal global i32 0, align 4
@hf_netlogon_dummy_string6 = internal global i32 0, align 4
@hf_netlogon_dummy_string7 = internal global i32 0, align 4
@hf_netlogon_dummy_string8 = internal global i32 0, align 4
@hf_netlogon_dummy_string9 = internal global i32 0, align 4
@hf_netlogon_dummy_string10 = internal global i32 0, align 4
@hf_netlogon_logon_dnslogondomainname = internal global i32 0, align 4
@hf_netlogon_logon_upn = internal global i32 0, align 4

; Function Attrs: null_pointer_is_valid sspstrong uwtable
define internal i32 @netlogon_dissect_VALIDATION_SAM_INFO2(ptr noundef %0, i32 noundef %1, ptr noundef %2, ptr noundef %3, ptr noundef %4, ptr noundef %5) #0 {
  %7 = alloca ptr, align 8
  %8 = alloca i32, align 4
  %9 = alloca ptr, align 8
  %10 = alloca ptr, align 8
  %11 = alloca ptr, align 8
  %12 = alloca ptr, align 8
  store ptr %0, ptr %7, align 8
  store i32 %1, ptr %8, align 4
  store ptr %2, ptr %9, align 8
  store ptr %3, ptr %10, align 8
  store ptr %4, ptr %11, align 8
  store ptr %5, ptr %12, align 8
  %13 = load ptr, ptr %7, align 8
  %14 = load i32, ptr %8, align 4
  %15 = load ptr, ptr %9, align 8
  %16 = load ptr, ptr %10, align 8
  %17 = load ptr, ptr %11, align 8
  %18 = load ptr, ptr %12, align 8
  %19 = call i32 @netlogon_dissect_VALIDATION_SAM_INFO(ptr noundef %13, i32 noundef %14, ptr noundef %15, ptr noundef %16, ptr noundef %17, ptr noundef %18)
  store i32 %19, ptr %8, align 4
  %20 = load ptr, ptr %7, align 8
  %21 = load i32, ptr %8, align 4
  %22 = load ptr, ptr %9, align 8
  %23 = load ptr, ptr %10, align 8
  %24 = load ptr, ptr %11, align 8
  %25 = load ptr, ptr %12, align 8
  %26 = load i32, ptr @hf_netlogon_num_sid, align 4
  %27 = call i32 @dissect_ndr_uint32(ptr noundef %20, i32 noundef %21, ptr noundef %22, ptr noundef %23, ptr noundef %24, ptr noundef %25, i32 noundef %26, ptr noundef null)
  store i32 %27, ptr %8, align 4
  %28 = load ptr, ptr %7, align 8
  %29 = load i32, ptr %8, align 4
  %30 = load ptr, ptr %9, align 8
  %31 = load ptr, ptr %10, align 8
  %32 = load ptr, ptr %11, align 8
  %33 = load ptr, ptr %12, align 8
  %34 = call i32 @dissect_ndr_pointer(ptr noundef %28, i32 noundef %29, ptr noundef %30, ptr noundef %31, ptr noundef %32, ptr noundef %33, ptr noundef @dissect_ndr_nt_SID_AND_ATTRIBUTES_ARRAY, i32 noundef 2, ptr noundef @.str, i32 noundef -1)
  store i32 %34, ptr %8, align 4
  %35 = load i32, ptr %8, align 4
  ret i32 %35
}

; Function Attrs: null_pointer_is_valid sspstrong uwtable
define internal i32 @netlogon_dissect_VALIDATION_SAM_INFO4(ptr noundef %0, i32 noundef %1, ptr noundef %2, ptr noundef %3, ptr noundef %4, ptr noundef %5) #0 {
  %7 = alloca ptr, align 8
  %8 = alloca i32, align 4
  %9 = alloca ptr, align 8
  %10 = alloca ptr, align 8
  %11 = alloca ptr, align 8
  %12 = alloca ptr, align 8
  store ptr %0, ptr %7, align 8
  store i32 %1, ptr %8, align 4
  store ptr %2, ptr %9, align 8
  store ptr %3, ptr %10, align 8
  store ptr %4, ptr %11, align 8
  store ptr %5, ptr %12, align 8
  %13 = load ptr, ptr %7, align 8
  %14 = load i32, ptr %8, align 4
  %15 = load ptr, ptr %9, align 8
  %16 = load ptr, ptr %10, align 8
  %17 = load ptr, ptr %11, align 8
  %18 = load ptr, ptr %12, align 8
  %19 = call i32 @netlogon_dissect_VALIDATION_SAM_INFO2(ptr noundef %13, i32 noundef %14, ptr noundef %15, ptr noundef %16, ptr noundef %17, ptr noundef %18)
  store i32 %19, ptr %8, align 4
  %20 = load ptr, ptr %7, align 8
  %21 = load i32, ptr %8, align 4
  %22 = load ptr, ptr %9, align 8
  %23 = load ptr, ptr %10, align 8
  %24 = load ptr, ptr %11, align 8
  %25 = load ptr, ptr %12, align 8
  %26 = load i32, ptr @hf_netlogon_logon_dnslogondomainname, align 4
  %27 = call i32 @dissect_ndr_counted_string(ptr noundef %20, i32 noundef %21, ptr noundef %22, ptr noundef %23, ptr noundef %24, ptr noundef %25, i32 noundef %26, i32 noundef 0)
  store i32 %27, ptr %8, align 4
  %28 = load ptr, ptr %7, align 8
  %29 = load i32, ptr %8, align 4
  %30 = load ptr, ptr %9, align 8
  %31 = load ptr, ptr %10, align 8
  %32 = load ptr, ptr %11, align 8
  %33 = load ptr, ptr %12, align 8
  %34 = load i32, ptr @hf_netlogon_logon_upn, align 4
  %35 = call i32 @dissect_ndr_counted_string(ptr noundef %28, i32 noundef %29, ptr noundef %30, ptr noundef %31, ptr noundef %32, ptr noundef %33, i32 noundef %34, i32 noundef 0)
  store i32 %35, ptr %8, align 4
  %36 = load ptr, ptr %7, align 8
  %37 = load i32, ptr %8, align 4
  %38 = load ptr, ptr %9, align 8
  %39 = load ptr, ptr %10, align 8
  %40 = load ptr, ptr %11, align 8
  %41 = load ptr, ptr %12, align 8
  %42 = load i32, ptr @hf_netlogon_dummy_string, align 4
  %43 = call i32 @dissect_ndr_counted_string(ptr noundef %36, i32 noundef %37, ptr noundef %38, ptr noundef %39, ptr noundef %40, ptr noundef %41, i32 noundef %42, i32 noundef 0)
  store i32 %43, ptr %8, align 4
  %44 = load ptr, ptr %7, align 8
  %45 = load i32, ptr %8, align 4
  %46 = load ptr, ptr %9, align 8
  %47 = load ptr, ptr %10, align 8
  %48 = load ptr, ptr %11, align 8
  %49 = load ptr, ptr %12, align 8
  %50 = load i32, ptr @hf_netlogon_dummy_string2, align 4
  %51 = call i32 @dissect_ndr_counted_string(ptr noundef %44, i32 noundef %45, ptr noundef %46, ptr noundef %47, ptr noundef %48, ptr noundef %49, i32 noundef %50, i32 noundef 0)
  store i32 %51, ptr %8, align 4
  %52 = load ptr, ptr %7, align 8
  %53 = load i32, ptr %8, align 4
  %54 = load ptr, ptr %9, align 8
  %55 = load ptr, ptr %10, align 8
  %56 = load ptr, ptr %11, align 8
  %57 = load ptr, ptr %12, align 8
  %58 = load i32, ptr @hf_netlogon_dummy_string3, align 4
  %59 = call i32 @dissect_ndr_counted_string(ptr noundef %52, i32 noundef %53, ptr noundef %54, ptr noundef %55, ptr noundef %56, ptr noundef %57, i32 noundef %58, i32 noundef 0)
  store i32 %59, ptr %8, align 4
  %60 = load ptr, ptr %7, align 8
  %61 = load i32, ptr %8, align 4
  %62 = load ptr, ptr %9, align 8
  %63 = load ptr, ptr %10, align 8
  %64 = load ptr, ptr %11, align 8
  %65 = load ptr, ptr %12, align 8
  %66 = load i32, ptr @hf_netlogon_dummy_string4, align 4
  %67 = call i32 @dissect_ndr_counted_string(ptr noundef %60, i32 noundef %61, ptr noundef %62, ptr noundef %63, ptr noundef %64, ptr noundef %65, i32 noundef %66, i32 noundef 0)
  store i32 %67, ptr %8, align 4
  %68 = load ptr, ptr %7, align 8
  %69 = load i32, ptr %8, align 4
  %70 = load ptr, ptr %9, align 8
  %71 = load ptr, ptr %10, align 8
  %72 = load ptr, ptr %11, align 8
  %73 = load ptr, ptr %12, align 8
  %74 = load i32, ptr @hf_netlogon_dummy_string5, align 4
  %75 = call i32 @dissect_ndr_counted_string(ptr noundef %68, i32 noundef %69, ptr noundef %70, ptr noundef %71, ptr noundef %72, ptr noundef %73, i32 noundef %74, i32 noundef 0)
  store i32 %75, ptr %8, align 4
  %76 = load ptr, ptr %7, align 8
  %77 = load i32, ptr %8, align 4
  %78 = load ptr, ptr %9, align 8
  %79 = load ptr, ptr %10, align 8
  %80 = load ptr, ptr %11, align 8
  %81 = load ptr, ptr %12, align 8
  %82 = load i32, ptr @hf_netlogon_dummy_string6, align 4
  %83 = call i32 @dissect_ndr_counted_string(ptr noundef %76, i32 noundef %77, ptr noundef %78, ptr noundef %79, ptr noundef %80, ptr noundef %81, i32 noundef %82, i32 noundef 0)
  store i32 %83, ptr %8, align 4
  %84 = load ptr, ptr %7, align 8
  %85 = load i32, ptr %8, align 4
  %86 = load ptr, ptr %9, align 8
  %87 = load ptr, ptr %10, align 8
  %88 = load ptr, ptr %11, align 8
  %89 = load ptr, ptr %12, align 8
  %90 = load i32, ptr @hf_netlogon_dummy_string7, align 4
  %91 = call i32 @dissect_ndr_counted_string(ptr noundef %84, i32 noundef %85, ptr noundef %86, ptr noundef %87, ptr noundef %88, ptr noundef %89, i32 noundef %90, i32 noundef 0)
  store i32 %91, ptr %8, align 4
  %92 = load ptr, ptr %7, align 8
  %93 = load i32, ptr %8, align 4
  %94 = load ptr, ptr %9, align 8
  %95 = load ptr, ptr %10, align 8
  %96 = load ptr, ptr %11, align 8
  %97 = load ptr, ptr %12, align 8
  %98 = load i32, ptr @hf_netlogon_dummy_string8, align 4
  %99 = call i32 @dissect_ndr_counted_string(ptr noundef %92, i32 noundef %93, ptr noundef %94, ptr noundef %95, ptr noundef %96, ptr noundef %97, i32 noundef %98, i32 noundef 0)
  store i32 %99, ptr %8, align 4
  %100 = load ptr, ptr %7, align 8
  %101 = load i32, ptr %8, align 4
  %102 = load ptr, ptr %9, align 8
  %103 = load ptr, ptr %10, align 8
  %104 = load ptr, ptr %11, align 8
  %105 = load ptr, ptr %12, align 8
  %106 = load i32, ptr @hf_netlogon_dummy_string9, align 4
  %107 = call i32 @dissect_ndr_counted_string(ptr noundef %100, i32 noundef %101, ptr noundef %102, ptr noundef %103, ptr noundef %104, ptr noundef %105, i32 noundef %106, i32 noundef 0)
  store i32 %107, ptr %8, align 4
  %108 = load ptr, ptr %7, align 8
  %109 = load i32, ptr %8, align 4
  %110 = load ptr, ptr %9, align 8
  %111 = load ptr, ptr %10, align 8
  %112 = load ptr, ptr %11, align 8
  %113 = load ptr, ptr %12, align 8
  %114 = load i32, ptr @hf_netlogon_dummy_string10, align 4
  %115 = call i32 @dissect_ndr_counted_string(ptr noundef %108, i32 noundef %109, ptr noundef %110, ptr noundef %111, ptr noundef %112, ptr noundef %113, i32 noundef %114, i32 noundef 0)
  store i32 %115, ptr %8, align 4
  %116 = load i32, ptr %8, align 4
  ret i32 %116
}