; Function Attrs: null_pointer_is_valid sspstrong uwtable
define internal i32 @netlogon_dissect_VALIDATION_SAM_INFO4(ptr noundef %0, i32 noundef %1, ptr noundef %2, ptr noundef %3, ptr noundef %4, ptr noundef %5) #0 {
  %7 = tail call i32 @netlogon_dissect_VALIDATION_SAM_INFO(ptr noundef %0, i32 noundef %1, ptr noundef %2, ptr noundef %3, ptr noundef %4, ptr noundef %5)
  %8 = load i32, ptr @hf_netlogon_num_sid, align 4
  %9 = tail call i32 @dissect_ndr_uint32(ptr noundef %0, i32 noundef %7, ptr noundef %2, ptr noundef %3, ptr noundef %4, ptr noundef %5, i32 noundef %8, ptr noundef null)
  %10 = tail call i32 @dissect_ndr_pointer(ptr noundef %0, i32 noundef %9, ptr noundef %2, ptr noundef %3, ptr noundef %4, ptr noundef %5, ptr noundef nonnull @dissect_ndr_nt_SID_AND_ATTRIBUTES_ARRAY, i32 noundef 2, ptr noundef nonnull @.str, i32 noundef -1)
  %11 = load i32, ptr @hf_netlogon_logon_dnslogondomainname, align 4
  %12 = tail call i32 @dissect_ndr_counted_string(ptr noundef %0, i32 noundef %10, ptr noundef %2, ptr noundef %3, ptr noundef %4, ptr noundef %5, i32 noundef %11, i32 noundef 0)
  %13 = load i32, ptr @hf_netlogon_logon_upn, align 4
  %14 = tail call i32 @dissect_ndr_counted_string(ptr noundef %0, i32 noundef %12, ptr noundef %2, ptr noundef %3, ptr noundef %4, ptr noundef %5, i32 noundef %13, i32 noundef 0)
  %15 = load i32, ptr @hf_netlogon_dummy_string, align 4
  %16 = tail call i32 @dissect_ndr_counted_string(ptr noundef %0, i32 noundef %14, ptr noundef %2, ptr noundef %3, ptr noundef %4, ptr noundef %5, i32 noundef %15, i32 noundef 0)
  %17 = load i32, ptr @hf_netlogon_dummy_string2, align 4
  %18 = tail call i32 @dissect_ndr_counted_string(ptr noundef %0, i32 noundef %16, ptr noundef %2, ptr noundef %3, ptr noundef %4, ptr noundef %5, i32 noundef %17, i32 noundef 0)
  %19 = load i32, ptr @hf_netlogon_dummy_string3, align 4
  %20 = tail call i32 @dissect_ndr_counted_string(ptr noundef %0, i32 noundef %18, ptr noundef %2, ptr noundef %3, ptr noundef %4, ptr noundef %5, i32 noundef %19, i32 noundef 0)
  %21 = load i32, ptr @hf_netlogon_dummy_string4, align 4
  %22 = tail call i32 @dissect_ndr_counted_string(ptr noundef %0, i32 noundef %20, ptr noundef %2, ptr noundef %3, ptr noundef %4, ptr noundef %5, i32 noundef %21, i32 noundef 0)
  %23 = load i32, ptr @hf_netlogon_dummy_string5, align 4
  %24 = tail call i32 @dissect_ndr_counted_string(ptr noundef %0, i32 noundef %22, ptr noundef %2, ptr noundef %3, ptr noundef %4, ptr noundef %5, i32 noundef %23, i32 noundef 0)
  %25 = load i32, ptr @hf_netlogon_dummy_string6, align 4
  %26 = tail call i32 @dissect_ndr_counted_string(ptr noundef %0, i32 noundef %24, ptr noundef %2, ptr noundef %3, ptr noundef %4, ptr noundef %5, i32 noundef %25, i32 noundef 0)
  %27 = load i32, ptr @hf_netlogon_dummy_string7, align 4
  %28 = tail call i32 @dissect_ndr_counted_string(ptr noundef %0, i32 noundef %26, ptr noundef %2, ptr noundef %3, ptr noundef %4, ptr noundef %5, i32 noundef %27, i32 noundef 0)
  %29 = load i32, ptr @hf_netlogon_dummy_string8, align 4
  %30 = tail call i32 @dissect_ndr_counted_string(ptr noundef %0, i32 noundef %28, ptr noundef %2, ptr noundef %3, ptr noundef %4, ptr noundef %5, i32 noundef %29, i32 noundef 0)
  %31 = load i32, ptr @hf_netlogon_dummy_string9, align 4
  %32 = tail call i32 @dissect_ndr_counted_string(ptr noundef %0, i32 noundef %30, ptr noundef %2, ptr noundef %3, ptr noundef %4, ptr noundef %5, i32 noundef %31, i32 noundef 0)
  %33 = load i32, ptr @hf_netlogon_dummy_string10, align 4
  %34 = tail call i32 @dissect_ndr_counted_string(ptr noundef %0, i32 noundef %32, ptr noundef %2, ptr noundef %3, ptr noundef %4, ptr noundef %5, i32 noundef %33, i32 noundef 0)
  ret i32 %34
}